target datalayout = "e-m:e-p270:32:32-p271:32:32-p272:64:64-i64:64-i128:128-f80:128-n8:16:32:64-S128"
target triple = "x86_64-pc-linux-gnu"

%struct.TupleTableSlotOps = type { i64, ptr, ptr, ptr, ptr, ptr, ptr, ptr, ptr, ptr, ptr, ptr, ptr }
%struct.WindowAggState = type { %struct.ScanState, ptr, i32, i32, ptr, ptr, ptr, ptr, ptr, i32, i32, i32, i32, i64, i64, i64, i64, ptr, i64, i64, i32, i32, ptr, ptr, i64, i64, %struct.FmgrInfo, %struct.FmgrInfo, i32, i8, i8, i8, i8, ptr, i64, i64, i64, i64, i64, ptr, ptr, ptr, ptr, i8, i8, i8, i8, i8, i8, i8, ptr, ptr, ptr, ptr, ptr, ptr }
%struct.ScanState = type { %struct.PlanState, ptr, ptr, ptr }
%struct.PlanState = type { i32, ptr, ptr, ptr, ptr, ptr, ptr, ptr, ptr, ptr, ptr, ptr, ptr, ptr, ptr, ptr, ptr, ptr, i8, ptr, ptr, ptr, ptr, ptr, i8, i8, i8, i8, i8, i8, i8, i8 }
%struct.FmgrInfo = type { ptr, i32, i16, i8, i8, i8, ptr, ptr, ptr }
%struct.TupleTableSlot = type { i32, i16, i16, ptr, ptr, ptr, ptr, ptr, %struct.ItemPointerData, i32 }
%struct.ItemPointerData = type { %struct.BlockIdData, i16 }
%struct.BlockIdData = type { i16, i16 }
%struct.WindowStatePerFuncData = type { ptr, ptr, i32, %struct.FmgrInfo, i32, i16, i8, i8, i32, ptr }
%struct.WindowObjectData = type { i32, ptr, ptr, ptr, i32, i32, i64, i64 }

; Function Attrs: inlinehint nounwind uwtable
define internal ptr @ExecCopySlot(ptr noundef %0, ptr noundef %1) #2 {
  %3 = alloca ptr, align 8
  %4 = alloca ptr, align 8
  store ptr %0, ptr %3, align 8
  store ptr %1, ptr %4, align 8
  %5 = load ptr, ptr %3, align 8
  %6 = getelementptr inbounds nuw %struct.TupleTableSlot, ptr %5, i32 0, i32 3
  %7 = load ptr, ptr %6, align 8
  %8 = getelementptr inbounds nuw %struct.TupleTableSlotOps, ptr %7, i32 0, i32 8
  %9 = load ptr, ptr %8, align 8
  %10 = load ptr, ptr %3, align 8
  %11 = load ptr, ptr %4, align 8
  call void %9(ptr noundef %10, ptr noundef %11)
  %12 = load ptr, ptr %3, align 8
  ret ptr %12
}

; Function Attrs: inlinehint nounwind uwtable
define internal ptr @ExecProcNode(ptr noundef %0) #2 {
  %2 = alloca ptr, align 8
  store ptr %0, ptr %2, align 8
  %3 = load ptr, ptr %2, align 8
  %4 = getelementptr inbounds nuw %struct.PlanState, ptr %3, i32 0, i32 13
  %5 = load ptr, ptr %4, align 8
  %6 = icmp ne ptr %5, null
  br i1 %6, label %7, label %9

7:                                                ; preds = %1
  %8 = load ptr, ptr %2, align 8
  call void @ExecReScan(ptr noundef %8)
  br label %9

9:                                                ; preds = %7, %1
  %10 = load ptr, ptr %2, align 8
  %11 = getelementptr inbounds nuw %struct.PlanState, ptr %10, i32 0, i32 3
  %12 = load ptr, ptr %11, align 8
  %13 = load ptr, ptr %2, align 8
  %14 = call ptr %12(ptr noundef %13)
  ret ptr %14
}

; Function Attrs: inlinehint nounwind uwtable
define internal ptr @ExecClearTuple(ptr noundef %0) #2 {
  %2 = alloca ptr, align 8
  store ptr %0, ptr %2, align 8
  %3 = load ptr, ptr %2, align 8
  %4 = getelementptr inbounds nuw %struct.TupleTableSlot, ptr %3, i32 0, i32 3
  %5 = load ptr, ptr %4, align 8
  %6 = getelementptr inbounds nuw %struct.TupleTableSlotOps, ptr %5, i32 0, i32 3
  %7 = load ptr, ptr %6, align 8
  %8 = load ptr, ptr %2, align 8
  call void %7(ptr noundef %8)
  %9 = load ptr, ptr %2, align 8
  ret ptr %9
}

; Function Attrs: nounwind uwtable
define internal void @begin_partition(ptr noundef %0) #0 {
  %2 = alloca ptr, align 8
  %3 = alloca ptr, align 8
  %4 = alloca i32, align 4
  %5 = alloca ptr, align 8
  %6 = alloca i32, align 4
  %7 = alloca ptr, align 8
  %8 = alloca i32, align 4
  %9 = alloca ptr, align 8
  %10 = alloca ptr, align 8
  store ptr %0, ptr %2, align 8
  call void @llvm.lifetime.start.p0(i64 8, ptr %3) #8
  %11 = load ptr, ptr %2, align 8
  %12 = getelementptr inbounds nuw %struct.PlanState, ptr %11, i32 0, i32 9
  %13 = load ptr, ptr %12, align 8
  store ptr %13, ptr %3, align 8
  call void @llvm.lifetime.start.p0(i64 4, ptr %4) #8
  %14 = load ptr, ptr %2, align 8
  %15 = getelementptr inbounds nuw %struct.WindowAggState, ptr %14, i32 0, i32 2
  %16 = load i32, ptr %15, align 8
  store i32 %16, ptr %4, align 4
  %17 = load ptr, ptr %2, align 8
  %18 = getelementptr inbounds nuw %struct.WindowAggState, ptr %17, i32 0, i32 44
  store i8 0, ptr %18, align 1
  %19 = load ptr, ptr %2, align 8
  %20 = getelementptr inbounds nuw %struct.WindowAggState, ptr %19, i32 0, i32 47
  store i8 0, ptr %20, align 4
  %21 = load ptr, ptr %2, align 8
  %22 = getelementptr inbounds nuw %struct.WindowAggState, ptr %21, i32 0, i32 48
  store i8 0, ptr %22, align 1
  %23 = load ptr, ptr %2, align 8
  %24 = getelementptr inbounds nuw %struct.WindowAggState, ptr %23, i32 0, i32 49
  store i8 0, ptr %24, align 2
  %25 = load ptr, ptr %2, align 8
  %26 = getelementptr inbounds nuw %struct.WindowAggState, ptr %25, i32 0, i32 13
  store i64 0, ptr %26, align 8
  %27 = load ptr, ptr %2, align 8
  %28 = getelementptr inbounds nuw %struct.WindowAggState, ptr %27, i32 0, i32 14
  store i64 0, ptr %28, align 8
  %29 = load ptr, ptr %2, align 8
  %30 = getelementptr inbounds nuw %struct.WindowAggState, ptr %29, i32 0, i32 15
  store i64 0, ptr %30, align 8
  %31 = load ptr, ptr %2, align 8
  %32 = getelementptr inbounds nuw %struct.WindowAggState, ptr %31, i32 0, i32 16
  store i64 0, ptr %32, align 8
  %33 = load ptr, ptr %2, align 8
  %34 = getelementptr inbounds nuw %struct.WindowAggState, ptr %33, i32 0, i32 34
  store i64 0, ptr %34, align 8
  %35 = load ptr, ptr %2, align 8
  %36 = getelementptr inbounds nuw %struct.WindowAggState, ptr %35, i32 0, i32 35
  store i64 0, ptr %36, align 8
  %37 = load ptr, ptr %2, align 8
  %38 = getelementptr inbounds nuw %struct.WindowAggState, ptr %37, i32 0, i32 36
  store i64 0, ptr %38, align 8
  %39 = load ptr, ptr %2, align 8
  %40 = getelementptr inbounds nuw %struct.WindowAggState, ptr %39, i32 0, i32 37
  store i64 0, ptr %40, align 8
  %41 = load ptr, ptr %2, align 8
  %42 = getelementptr inbounds nuw %struct.WindowAggState, ptr %41, i32 0, i32 38
  store i64 -1, ptr %42, align 8
  %43 = load ptr, ptr %2, align 8
  %44 = getelementptr inbounds nuw %struct.WindowAggState, ptr %43, i32 0, i32 53
  %45 = load ptr, ptr %44, align 8
  %46 = call ptr @ExecClearTuple(ptr noundef %45)
  %47 = load ptr, ptr %2, align 8
  %48 = getelementptr inbounds nuw %struct.WindowAggState, ptr %47, i32 0, i32 51
  %49 = load ptr, ptr %48, align 8
  %50 = icmp ne ptr %49, null
  br i1 %50, label %51, label %56

51:                                               ; preds = %1
  %52 = load ptr, ptr %2, align 8
  %53 = getelementptr inbounds nuw %struct.WindowAggState, ptr %52, i32 0, i32 51
  %54 = load ptr, ptr %53, align 8
  %55 = call ptr @ExecClearTuple(ptr noundef %54)
  br label %56

56:                                               ; preds = %51, %1
  %57 = load ptr, ptr %2, align 8
  %58 = getelementptr inbounds nuw %struct.WindowAggState, ptr %57, i32 0, i32 52
  %59 = load ptr, ptr %58, align 8
  %60 = icmp ne ptr %59, null
  br i1 %60, label %61, label %66

61:                                               ; preds = %56
  %62 = load ptr, ptr %2, align 8
  %63 = getelementptr inbounds nuw %struct.WindowAggState, ptr %62, i32 0, i32 52
  %64 = load ptr, ptr %63, align 8
  %65 = call ptr @ExecClearTuple(ptr noundef %64)
  br label %66

66:                                               ; preds = %61, %56
  %67 = load ptr, ptr %2, align 8
  %68 = getelementptr inbounds nuw %struct.WindowAggState, ptr %67, i32 0, i32 50
  %69 = load ptr, ptr %68, align 8
  %70 = icmp eq ptr %69, null
  br i1 %70, label %80, label %71

71:                                               ; preds = %66
  %72 = load ptr, ptr %2, align 8
  %73 = getelementptr inbounds nuw %struct.WindowAggState, ptr %72, i32 0, i32 50
  %74 = load ptr, ptr %73, align 8
  %75 = getelementptr inbounds nuw %struct.TupleTableSlot, ptr %74, i32 0, i32 1
  %76 = load i16, ptr %75, align 4
  %77 = zext i16 %76 to i32
  %78 = and i32 %77, 2
  %79 = icmp ne i32 %78, 0
  br i1 %79, label %80, label %107

80:                                               ; preds = %71, %66
  call void @llvm.lifetime.start.p0(i64 8, ptr %5) #8
  %81 = load ptr, ptr %3, align 8
  %82 = call ptr @ExecProcNode(ptr noundef %81)
  store ptr %82, ptr %5, align 8
  %83 = load ptr, ptr %5, align 8
  %84 = icmp eq ptr %83, null
  br i1 %84, label %98, label %85

85:                                               ; preds = %80
  %86 = load ptr, ptr %5, align 8
  %87 = getelementptr inbounds nuw %struct.TupleTableSlot, ptr %86, i32 0, i32 1
  %88 = load i16, ptr %87, align 4
  %89 = zext i16 %88 to i32
  %90 = and i32 %89, 2
  %91 = icmp ne i32 %90, 0
  br i1 %91, label %98, label %92

92:                                               ; preds = %85
  %93 = load ptr, ptr %2, align 8
  %94 = getelementptr inbounds nuw %struct.WindowAggState, ptr %93, i32 0, i32 50
  %95 = load ptr, ptr %94, align 8
  %96 = load ptr, ptr %5, align 8
  %97 = call ptr @ExecCopySlot(ptr noundef %95, ptr noundef %96)
  br label %103

98:                                               ; preds = %85, %80
  %99 = load ptr, ptr %2, align 8
  %100 = getelementptr inbounds nuw %struct.WindowAggState, ptr %99, i32 0, i32 44
  store i8 1, ptr %100, align 1
  %101 = load ptr, ptr %2, align 8
  %102 = getelementptr inbounds nuw %struct.WindowAggState, ptr %101, i32 0, i32 46
  store i8 0, ptr %102, align 1
  store i32 1, ptr %6, align 4
  br label %104

103:                                              ; preds = %92
  store i32 0, ptr %6, align 4
  br label %104

104:                                              ; preds = %103, %98
  call void @llvm.lifetime.end.p0(i64 8, ptr %5) #8
  %105 = load i32, ptr %6, align 4
  switch i32 %105, label %179 [
    i32 0, label %106
  ]

106:                                              ; preds = %104
  br label %107

107:                                              ; preds = %106, %71
  %108 = load ptr, ptr %2, align 8
  %109 = getelementptr inbounds nuw %struct.WindowAggState, ptr %108, i32 0, i32 8
  %110 = load ptr, ptr %109, align 8
  %111 = icmp eq ptr %110, null
  %112 = zext i1 %111 to i32
  %113 = icmp ne i32 %112, 0
  %114 = zext i1 %113 to i32
  %115 = sext i32 %114 to i64
  %116 = call i64 @llvm.expect.i64(i64 %115, i64 0)
  %117 = icmp ne i64 %116, 0
  br i1 %117, label %118, label %120

118:                                              ; preds = %107
  %119 = load ptr, ptr %2, align 8
  call void @prepare_tuplestore(ptr noundef %119)
  br label %120

120:                                              ; preds = %118, %107
  %121 = load ptr, ptr %2, align 8
  %122 = getelementptr inbounds nuw %struct.WindowAggState, ptr %121, i32 0, i32 45
  store i8 0, ptr %122, align 2
  %123 = load ptr, ptr %2, align 8
  %124 = getelementptr inbounds nuw %struct.WindowAggState, ptr %123, i32 0, i32 3
  %125 = load i32, ptr %124, align 4
  %126 = icmp sgt i32 %125, 0
  br i1 %126, label %127, label %139

127:                                              ; preds = %120
  call void @llvm.lifetime.start.p0(i64 8, ptr %7) #8
  %128 = load ptr, ptr %2, align 8
  %129 = getelementptr inbounds nuw %struct.WindowAggState, ptr %128, i32 0, i32 17
  %130 = load ptr, ptr %129, align 8
  store ptr %130, ptr %7, align 8
  %131 = load ptr, ptr %7, align 8
  %132 = getelementptr inbounds nuw %struct.WindowObjectData, ptr %131, i32 0, i32 6
  store i64 -1, ptr %132, align 8
  %133 = load ptr, ptr %7, align 8
  %134 = getelementptr inbounds nuw %struct.WindowObjectData, ptr %133, i32 0, i32 7
  store i64 -1, ptr %134, align 8
  %135 = load ptr, ptr %2, align 8
  %136 = getelementptr inbounds nuw %struct.WindowAggState, ptr %135, i32 0, i32 18
  store i64 0, ptr %136, align 8
  %137 = load ptr, ptr %2, align 8
  %138 = getelementptr inbounds nuw %struct.WindowAggState, ptr %137, i32 0, i32 19
  store i64 0, ptr %138, align 8
  call void @llvm.lifetime.end.p0(i64 8, ptr %7) #8
  br label %139

139:                                              ; preds = %127, %120
  call void @llvm.lifetime.start.p0(i64 4, ptr %8) #8
  store i32 0, ptr %8, align 4
  br label %140

140:                                              ; preds = %165, %139
  %141 = load i32, ptr %8, align 4
  %142 = load i32, ptr %4, align 4
  %143 = icmp slt i32 %141, %142
  br i1 %143, label %145, label %144

144:                                              ; preds = %140
  store i32 2, ptr %6, align 4
  call void @llvm.lifetime.end.p0(i64 4, ptr %8) #8
  br label %168

145:                                              ; preds = %140
  call void @llvm.lifetime.start.p0(i64 8, ptr %9) #8
  %146 = load ptr, ptr %2, align 8
  %147 = getelementptr inbounds nuw %struct.WindowAggState, ptr %146, i32 0, i32 4
  %148 = load ptr, ptr %147, align 8
  %149 = load i32, ptr %8, align 4
  %150 = sext i32 %149 to i64
  %151 = getelementptr inbounds %struct.WindowStatePerFuncData, ptr %148, i64 %150
  store ptr %151, ptr %9, align 8
  %152 = load ptr, ptr %9, align 8
  %153 = getelementptr inbounds nuw %struct.WindowStatePerFuncData, ptr %152, i32 0, i32 7
  %154 = load i8, ptr %153, align 1, !range !4, !noundef !5
  %155 = trunc i8 %154 to i1
  br i1 %155, label %164, label %156

156:                                              ; preds = %145
  call void @llvm.lifetime.start.p0(i64 8, ptr %10) #8
  %157 = load ptr, ptr %9, align 8
  %158 = getelementptr inbounds nuw %struct.WindowStatePerFuncData, ptr %157, i32 0, i32 9
  %159 = load ptr, ptr %158, align 8
  store ptr %159, ptr %10, align 8
  %160 = load ptr, ptr %10, align 8
  %161 = getelementptr inbounds nuw %struct.WindowObjectData, ptr %160, i32 0, i32 6
  store i64 -1, ptr %161, align 8
  %162 = load ptr, ptr %10, align 8
  %163 = getelementptr inbounds nuw %struct.WindowObjectData, ptr %162, i32 0, i32 7
  store i64 -1, ptr %163, align 8
  call void @llvm.lifetime.end.p0(i64 8, ptr %10) #8
  br label %164

164:                                              ; preds = %156, %145
  call void @llvm.lifetime.end.p0(i64 8, ptr %9) #8
  br label %165

165:                                              ; preds = %164
  %166 = load i32, ptr %8, align 4
  %167 = add i32 %166, 1
  store i32 %167, ptr %8, align 4
  br label %140, !llvm.loop !24

168:                                              ; preds = %144
  %169 = load ptr, ptr %2, align 8
  %170 = getelementptr inbounds nuw %struct.WindowAggState, ptr %169, i32 0, i32 8
  %171 = load ptr, ptr %170, align 8
  %172 = load ptr, ptr %2, align 8
  %173 = getelementptr inbounds nuw %struct.WindowAggState, ptr %172, i32 0, i32 50
  %174 = load ptr, ptr %173, align 8
  call void @tuplestore_puttupleslot(ptr noundef %171, ptr noundef %174)
  %175 = load ptr, ptr %2, align 8
  %176 = getelementptr inbounds nuw %struct.WindowAggState, ptr %175, i32 0, i32 13
  %177 = load i64, ptr %176, align 8
  %178 = add i64 %177, 1
  store i64 %178, ptr %176, align 8
  store i32 0, ptr %6, align 4
  br label %179

179:                                              ; preds = %168, %104
  call void @llvm.lifetime.end.p0(i64 4, ptr %4) #8
  call void @llvm.lifetime.end.p0(i64 8, ptr %3) #8
  %180 = load i32, ptr %6, align 4
  switch i32 %180, label %182 [
    i32 0, label %181
    i32 1, label %181
  ]

181:                                              ; preds = %179, %179
  ret void

182:                                              ; preds = %179
  unreachable
}