; Function Attrs: nounwind uwtable
define internal fastcc void @begin_partition(ptr noundef captures(none) initializes((296, 328), (504, 544), (577, 578), (580, 583)) %0) unnamed_addr #0 {
  %2 = getelementptr inbounds nuw i8, ptr %0, i64 72
  %3 = load ptr, ptr %2, align 8
  %4 = getelementptr inbounds nuw i8, ptr %0, i64 232
  %5 = load i32, ptr %4, align 8
  %6 = getelementptr inbounds nuw i8, ptr %0, i64 577
  store i8 0, ptr %6, align 1
  %7 = getelementptr inbounds nuw i8, ptr %0, i64 580
  store i8 0, ptr %7, align 4
  %8 = getelementptr inbounds nuw i8, ptr %0, i64 581
  store i8 0, ptr %8, align 1
  %9 = getelementptr inbounds nuw i8, ptr %0, i64 582
  store i8 0, ptr %9, align 2
  %10 = getelementptr inbounds nuw i8, ptr %0, i64 296
  %11 = getelementptr inbounds nuw i8, ptr %0, i64 504
  %12 = getelementptr inbounds nuw i8, ptr %0, i64 536
  tail call void @llvm.memset.p0.i64(ptr noundef nonnull align 8 dereferenceable(32) %10, i8 0, i64 32, i1 false)
  tail call void @llvm.memset.p0.i64(ptr noundef nonnull align 8 dereferenceable(32) %11, i8 0, i64 32, i1 false)
  store i64 -1, ptr %12, align 8
  %13 = getelementptr inbounds nuw i8, ptr %0, i64 608
  %14 = load ptr, ptr %13, align 8
  %15 = getelementptr inbounds nuw i8, ptr %14, i64 8
  %16 = load ptr, ptr %15, align 8
  %17 = getelementptr inbounds nuw i8, ptr %16, i64 24
  %18 = load ptr, ptr %17, align 8
  tail call void %18(ptr noundef %14) #9
  %19 = getelementptr inbounds nuw i8, ptr %0, i64 592
  %20 = load ptr, ptr %19, align 8
  %.not = icmp eq ptr %20, null
  br i1 %.not, label %26, label %21

21:                                               ; preds = %1
  %22 = getelementptr inbounds nuw i8, ptr %20, i64 8
  %23 = load ptr, ptr %22, align 8
  %24 = getelementptr inbounds nuw i8, ptr %23, i64 24
  %25 = load ptr, ptr %24, align 8
  tail call void %25(ptr noundef nonnull %20) #9
  br label %26

26:                                               ; preds = %21, %1
  %27 = getelementptr inbounds nuw i8, ptr %0, i64 600
  %28 = load ptr, ptr %27, align 8
  %.not55 = icmp eq ptr %28, null
  br i1 %.not55, label %34, label %29

29:                                               ; preds = %26
  %30 = getelementptr inbounds nuw i8, ptr %28, i64 8
  %31 = load ptr, ptr %30, align 8
  %32 = getelementptr inbounds nuw i8, ptr %31, i64 24
  %33 = load ptr, ptr %32, align 8
  tail call void %33(ptr noundef nonnull %28) #9
  br label %34

34:                                               ; preds = %29, %26
  %35 = getelementptr inbounds nuw i8, ptr %0, i64 584
  %36 = load ptr, ptr %35, align 8
  %37 = icmp eq ptr %36, null
  br i1 %37, label %42, label %38

38:                                               ; preds = %34
  %39 = getelementptr inbounds nuw i8, ptr %36, i64 4
  %40 = load i16, ptr %39, align 4
  %41 = and i16 %40, 2
  %.not56 = icmp eq i16 %41, 0
  br i1 %.not56, label %61, label %42

42:                                               ; preds = %38, %34
  %43 = getelementptr inbounds nuw i8, ptr %3, i64 104
  %44 = load ptr, ptr %43, align 8
  %.not.i = icmp eq ptr %44, null
  br i1 %.not.i, label %ExecProcNode.exit, label %45

45:                                               ; preds = %42
  tail call void @ExecReScan(ptr noundef nonnull %3) #9
  br label %ExecProcNode.exit

ExecProcNode.exit:                                ; preds = %42, %45
  %46 = getelementptr inbounds nuw i8, ptr %3, i64 24
  %47 = load ptr, ptr %46, align 8
  %48 = tail call ptr %47(ptr noundef nonnull %3) #9
  %49 = icmp eq ptr %48, null
  br i1 %49, label %.critedge, label %50

50:                                               ; preds = %ExecProcNode.exit
  %51 = getelementptr inbounds nuw i8, ptr %48, i64 4
  %52 = load i16, ptr %51, align 4
  %53 = and i16 %52, 2
  %.not57 = icmp eq i16 %53, 0
  br i1 %.not57, label %54, label %.critedge

54:                                               ; preds = %50
  %55 = load ptr, ptr %35, align 8
  %56 = getelementptr inbounds nuw i8, ptr %55, i64 8
  %57 = load ptr, ptr %56, align 8
  %58 = getelementptr inbounds nuw i8, ptr %57, i64 64
  %59 = load ptr, ptr %58, align 8
  tail call void %59(ptr noundef %55, ptr noundef nonnull %48) #9
  br label %61

.critedge:                                        ; preds = %50, %ExecProcNode.exit
  store i8 1, ptr %6, align 1
  %60 = getelementptr inbounds nuw i8, ptr %0, i64 579
  store i8 0, ptr %60, align 1
  br label %94

61:                                               ; preds = %54, %38
  %62 = getelementptr inbounds nuw i8, ptr %0, i64 272
  %63 = load ptr, ptr %62, align 8
  %64 = icmp eq ptr %63, null
  br i1 %64, label %65, label %66, !prof !9

65:                                               ; preds = %61
  tail call fastcc void @prepare_tuplestore(ptr noundef nonnull %0)
  br label %66

66:                                               ; preds = %65, %61
  %67 = getelementptr inbounds nuw i8, ptr %0, i64 578
  store i8 0, ptr %67, align 2
  %68 = getelementptr inbounds nuw i8, ptr %0, i64 236
  %69 = load i32, ptr %68, align 4
  %70 = icmp sgt i32 %69, 0
  br i1 %70, label %71, label %76

71:                                               ; preds = %66
  %72 = getelementptr inbounds nuw i8, ptr %0, i64 328
  %73 = load ptr, ptr %72, align 8
  %74 = getelementptr inbounds nuw i8, ptr %73, i64 40
  %75 = getelementptr inbounds nuw i8, ptr %0, i64 336
  tail call void @llvm.memset.p0.i64(ptr noundef nonnull align 8 dereferenceable(16) %74, i8 -1, i64 16, i1 false)
  tail call void @llvm.memset.p0.i64(ptr noundef nonnull align 8 dereferenceable(16) %75, i8 0, i64 16, i1 false)
  br label %76

76:                                               ; preds = %71, %66
  %77 = icmp sgt i32 %5, 0
  br i1 %77, label %.lr.ph, label %._crit_edge

.lr.ph:                                           ; preds = %76
  %78 = getelementptr inbounds nuw i8, ptr %0, i64 240
  %wide.trip.count = zext nneg i32 %5 to i64
  br label %83

._crit_edge:                                      ; preds = %93, %76
  %79 = load ptr, ptr %62, align 8
  %80 = load ptr, ptr %35, align 8
  tail call void @tuplestore_puttupleslot(ptr noundef %79, ptr noundef %80) #9
  %81 = load i64, ptr %10, align 8
  %82 = add i64 %81, 1
  store i64 %82, ptr %10, align 8
  br label %94

83:                                               ; preds = %.lr.ph, %93
  %indvars.iv = phi i64 [ 0, %.lr.ph ], [ %indvars.iv.next, %93 ]
  %84 = load ptr, ptr %78, align 8
  %85 = getelementptr inbounds nuw %struct.WindowStatePerFuncData, ptr %84, i64 %indvars.iv
  %86 = getelementptr inbounds nuw i8, ptr %85, i64 79
  %87 = load i8, ptr %86, align 1, !range !4, !noundef !5
  %88 = trunc nuw i8 %87 to i1
  br i1 %88, label %93, label %89

89:                                               ; preds = %83
  %90 = getelementptr inbounds nuw i8, ptr %85, i64 88
  %91 = load ptr, ptr %90, align 8
  %92 = getelementptr inbounds nuw i8, ptr %91, i64 40
  tail call void @llvm.memset.p0.i64(ptr noundef nonnull align 8 dereferenceable(16) %92, i8 -1, i64 16, i1 false)
  br label %93

93:                                               ; preds = %89, %83
  %indvars.iv.next = add nuw nsw i64 %indvars.iv, 1
  %exitcond.not = icmp eq i64 %indvars.iv.next, %wide.trip.count
  br i1 %exitcond.not, label %._crit_edge, label %83, !llvm.loop !31

94:                                               ; preds = %.critedge, %._crit_edge
  ret void
}